target datalayout = "e-m:e-p270:32:32-p271:32:32-p272:64:64-i64:64-i128:128-f80:128-n8:16:32:64-S128"
target triple = "x86_64-pc-linux-gnu"

%struct.redisServer = type { i32, i64, ptr, ptr, ptr, i32, i32, i32, i32, i32, ptr, ptr, ptr, ptr, ptr, i32, i32, i32, i32, i64, i32, i32, i32, i32, ptr, i32, i32, [41 x i8], i32, i64, i32, i32, i32, ptr, ptr, i32, i32, i64, ptr, ptr, ptr, ptr, [2 x i32], i32, i32, i32, i32, i32, i32, [16 x ptr], i32, ptr, ptr, i32, [8 x %struct.connListener], i32, %struct.connListener, ptr, ptr, ptr, ptr, ptr, ptr, ptr, ptr, ptr, ptr, i32, ptr, i32, ptr, [3 x %struct.pause_event], [256 x i8], ptr, i64, i32, i32, [128 x i32], i32, i32, i64, i32, i32, i32, i32, i32, i64, i64, i64, i64, i64, i64, i64, i64, i64, i64, double, i64, i64, i64, i64, i64, i64, i64, i64, i64, i64, i64, i64, i64, i64, i64, i64, i64, i64, i64, i64, i64, double, i64, i64, i64, i64, i64, ptr, i64, i64, i64, %struct.malloc_stats, i64, i64, i64, i64, i64, i64, i64, i64, i64, i64, i64, i64, double, [4 x i64], i64, i64, i64, i64, [128 x i64], [128 x i64], i64, i64, [7 x %struct.anon], i64, i64, i64, i64, i64, i64, [4 x %struct.durationStats], i32, i32, i32, i32, i32, i32, i32, i32, i32, i32, i32, i32, i64, i32, i32, i32, i32, i64, i64, i32, i32, i32, i32, i32, ptr, [3 x %struct.clientBufferLimitsConfig], i32, i32, i32, ptr, i32, i32, i32, i32, i32, i32, ptr, ptr, i32, i32, i64, i64, i64, i64, i64, i32, i32, ptr, i32, i32, i64, i64, i64, i64, i64, i32, i32, i64, i32, i32, i32, i32, i32, i32, i32, i32, ptr, i32, i64, i64, i64, i64, i32, ptr, i32, ptr, i32, i32, i32, i64, i64, i64, i64, i32, i32, i32, i32, i32, i32, ptr, i32, i32, ptr, i32, i32, i32, [2 x i32], i32, %struct.redisOpArray, i32, ptr, i32, ptr, i32, i32, i32, i32, i32, i32, i32, [41 x i8], [41 x i8], i64, i64, i64, i64, i32, i32, ptr, i64, i64, %struct.replDataBuf, i64, i64, i32, i32, i32, i32, i32, i32, i32, i32, i32, i64, ptr, i64, ptr, ptr, ptr, i32, i32, ptr, ptr, i32, i32, i32, i64, i64, i64, i64, ptr, ptr, i32, ptr, i64, i32, i32, i32, i64, i32, i32, i32, i32, ptr, i32, i32, [41 x i8], i64, i32, ptr, i32, i32, i64, i64, i32, i32, i32, i32, i32, i64, [3 x i32], i32, i32, i32, [10 x i32], ptr, ptr, i32, i64, ptr, ptr, i32, i32, i32, i32, i64, i64, i64, i64, i64, i64, i64, i64, i64, i64, i32, i32, i64, i64, i32, i64, i64, i64, i64, i64, ptr, ptr, i32, ptr, i32, i32, i32, i32, i64, i64, ptr, ptr, i32, i32, i32, i32, i32, ptr, ptr, ptr, i32, i32, i32, i32, i32, i32, i32, i64, i32, i32, i64, i32, i32, i32, i32, i32, i32, i32, i64, ptr, ptr, i64, ptr, i32, %struct.aclInfo, i32, i64, i32, i32, i32, %struct.redisTLSContextConfig, ptr, ptr, ptr, ptr, ptr, i64, i32, ptr, i32, i32, i32, i64, i32, ptr }
%struct.connListener = type { [16 x i32], i32, ptr, i32, i32, ptr, ptr }
%struct.pause_event = type { i32, i64 }
%struct.malloc_stats = type { i64, i64, i64, i64, i64, i64, i64, i64, i64, i64, i64 }
%struct.anon = type { i64, i64, [16 x i64], i32 }
%struct.durationStats = type { i64, i64, i64 }
%struct.clientBufferLimitsConfig = type { i64, i64, i64 }
%struct.redisOpArray = type { ptr, i32, i32 }
%struct.replDataBuf = type { ptr, i64, i64, i64, i64 }
%struct.aclInfo = type { i64, i64, i64, i64 }
%struct.redisTLSContextConfig = type { ptr, ptr, ptr, ptr, ptr, ptr, ptr, ptr, ptr, ptr, ptr, ptr, i32, i32, i32, i32 }
%struct.ConnectionType = type { ptr, ptr, ptr, ptr, ptr, ptr, ptr, ptr, ptr, ptr, ptr, ptr, ptr, ptr, ptr, ptr, ptr, ptr, ptr, ptr, ptr, ptr, ptr, ptr, ptr, ptr, ptr, ptr, ptr, ptr }

@connTypes = internal global [8 x ptr] zeroinitializer, align 16
@server = external global %struct.redisServer, align 8
@.str = private unnamed_addr constant [39 x i8] c"Connection types %s already registered\00", align 1
@.str.1 = private unnamed_addr constant [30 x i8] c"Connection type %s registered\00", align 1

; Function Attrs: nounwind uwtable
define dso_local i32 @connTypeRegister(ptr noundef %0) #0 {
  %2 = alloca i32, align 4
  %3 = alloca ptr, align 8
  %4 = alloca ptr, align 8
  %5 = alloca ptr, align 8
  %6 = alloca i32, align 4
  %7 = alloca i32, align 4
  store ptr %0, ptr %3, align 8, !tbaa !5
  call void @llvm.lifetime.start.p0(i64 8, ptr %4) #6
  %8 = load ptr, ptr %3, align 8, !tbaa !5
  %9 = getelementptr inbounds nuw %struct.ConnectionType, ptr %8, i32 0, i32 0
  %10 = load ptr, ptr %9, align 8, !tbaa !10
  %11 = call ptr %10(ptr noundef null)
  store ptr %11, ptr %4, align 8, !tbaa !12
  call void @llvm.lifetime.start.p0(i64 8, ptr %5) #6
  call void @llvm.lifetime.start.p0(i64 4, ptr %6) #6
  store i32 0, ptr %6, align 4, !tbaa !14
  br label %12

12:                                               ; preds = %41, %1
  %13 = load i32, ptr %6, align 4, !tbaa !14
  %14 = icmp slt i32 %13, 8
  br i1 %14, label %15, label %44

15:                                               ; preds = %12
  %16 = load i32, ptr %6, align 4, !tbaa !14
  %17 = sext i32 %16 to i64
  %18 = getelementptr inbounds [8 x ptr], ptr @connTypes, i64 0, i64 %17
  %19 = load ptr, ptr %18, align 8, !tbaa !5
  store ptr %19, ptr %5, align 8, !tbaa !5
  %20 = load ptr, ptr %5, align 8, !tbaa !5
  %21 = icmp ne ptr %20, null
  br i1 %21, label %23, label %22

22:                                               ; preds = %15
  br label %44

23:                                               ; preds = %15
  %24 = load ptr, ptr %4, align 8, !tbaa !12
  %25 = load ptr, ptr %5, align 8, !tbaa !5
  %26 = getelementptr inbounds nuw %struct.ConnectionType, ptr %25, i32 0, i32 0
  %27 = load ptr, ptr %26, align 8, !tbaa !10
  %28 = call ptr %27(ptr noundef null)
  %29 = call i32 @strcasecmp(ptr noundef %24, ptr noundef %28) #7
  %30 = icmp ne i32 %29, 0
  br i1 %30, label %40, label %31

31:                                               ; preds = %23
  br label %32

32:                                               ; preds = %31
  %33 = load i32, ptr getelementptr inbounds nuw (%struct.redisServer, ptr @server, i32 0, i32 159), align 8, !tbaa !16
  %34 = icmp slt i32 3, %33
  br i1 %34, label %35, label %36

35:                                               ; preds = %32
  br label %39

36:                                               ; preds = %32
  %37 = load ptr, ptr %4, align 8, !tbaa !12
  call void (i32, ptr, ...) @_serverLog(i32 noundef 3, ptr noundef @.str, ptr noundef %37)
  br label %38

38:                                               ; preds = %36
  br label %39

39:                                               ; preds = %38, %35
  store i32 -1, ptr %2, align 4
  store i32 1, ptr %7, align 4
  br label %66

40:                                               ; preds = %23
  br label %41

41:                                               ; preds = %40
  %42 = load i32, ptr %6, align 4, !tbaa !14
  %43 = add nsw i32 %42, 1
  store i32 %43, ptr %6, align 4, !tbaa !14
  br label %12, !llvm.loop !43

44:                                               ; preds = %22, %12
  br label %45

45:                                               ; preds = %44
  %46 = load i32, ptr getelementptr inbounds nuw (%struct.redisServer, ptr @server, i32 0, i32 159), align 8, !tbaa !16
  %47 = icmp slt i32 1, %46
  br i1 %47, label %48, label %49

48:                                               ; preds = %45
  br label %52

49:                                               ; preds = %45
  %50 = load ptr, ptr %4, align 8, !tbaa !12
  call void (i32, ptr, ...) @_serverLog(i32 noundef 1, ptr noundef @.str.1, ptr noundef %50)
  br label %51

51:                                               ; preds = %49
  br label %52

52:                                               ; preds = %51, %48
  %53 = load ptr, ptr %3, align 8, !tbaa !5
  %54 = load i32, ptr %6, align 4, !tbaa !14
  %55 = sext i32 %54 to i64
  %56 = getelementptr inbounds [8 x ptr], ptr @connTypes, i64 0, i64 %55
  store ptr %53, ptr %56, align 8, !tbaa !5
  %57 = load ptr, ptr %3, align 8, !tbaa !5
  %58 = getelementptr inbounds nuw %struct.ConnectionType, ptr %57, i32 0, i32 1
  %59 = load ptr, ptr %58, align 8, !tbaa !45
  %60 = icmp ne ptr %59, null
  br i1 %60, label %61, label %65

61:                                               ; preds = %52
  %62 = load ptr, ptr %3, align 8, !tbaa !5
  %63 = getelementptr inbounds nuw %struct.ConnectionType, ptr %62, i32 0, i32 1
  %64 = load ptr, ptr %63, align 8, !tbaa !45
  call void %64()
  br label %65

65:                                               ; preds = %61, %52
  store i32 0, ptr %2, align 4
  store i32 1, ptr %7, align 4
  br label %66

66:                                               ; preds = %65, %39
  call void @llvm.lifetime.end.p0(i64 4, ptr %6) #6
  call void @llvm.lifetime.end.p0(i64 8, ptr %5) #6
  call void @llvm.lifetime.end.p0(i64 8, ptr %4) #6
  %67 = load i32, ptr %2, align 4
  ret i32 %67
}