; Function Attrs: nounwind uwtable
define dso_local range(i32 -1, 1) i32 @connTypeRegister(ptr noundef %0) local_unnamed_addr #0 {
  %2 = load ptr, ptr %0, align 8, !tbaa !5
  %3 = tail call ptr %2(ptr noundef null) #4
  br label %4

4:                                                ; preds = %1, %15
  %indvars.iv = phi i64 [ 0, %1 ], [ %indvars.iv.next, %15 ]
  %5 = getelementptr inbounds nuw [8 x ptr], ptr @connTypes, i64 0, i64 %indvars.iv
  %6 = load ptr, ptr %5, align 8, !tbaa !10
  %.not = icmp eq ptr %6, null
  br i1 %.not, label %16, label %7

7:                                                ; preds = %4
  %8 = load ptr, ptr %6, align 8, !tbaa !5
  %9 = tail call ptr %8(ptr noundef null) #4
  %10 = tail call i32 @strcasecmp(ptr noundef %3, ptr noundef %9) #5
  %.not17 = icmp eq i32 %10, 0
  br i1 %.not17, label %11, label %15

11:                                               ; preds = %7
  %12 = load i32, ptr getelementptr inbounds nuw (i8, ptr @server, i64 6288), align 8, !tbaa !12
  %13 = icmp sgt i32 %12, 3
  br i1 %13, label %26, label %14

14:                                               ; preds = %11
  tail call void (i32, ptr, ...) @_serverLog(i32 noundef 3, ptr noundef nonnull @.str, ptr noundef %3) #4
  br label %26

15:                                               ; preds = %7
  %indvars.iv.next = add nuw nsw i64 %indvars.iv, 1
  %exitcond.not = icmp eq i64 %indvars.iv.next, 8
  br i1 %exitcond.not, label %16, label %4, !llvm.loop !41

16:                                               ; preds = %15, %4
  %.0.lcssa = phi i64 [ 8, %15 ], [ %indvars.iv, %4 ]
  %17 = load i32, ptr getelementptr inbounds nuw (i8, ptr @server, i64 6288), align 8, !tbaa !12
  %18 = icmp sgt i32 %17, 1
  br i1 %18, label %20, label %19

19:                                               ; preds = %16
  tail call void (i32, ptr, ...) @_serverLog(i32 noundef 1, ptr noundef nonnull @.str.1, ptr noundef %3) #4
  br label %20

20:                                               ; preds = %16, %19
  %21 = and i64 %.0.lcssa, 4294967295
  %22 = getelementptr inbounds nuw [8 x ptr], ptr @connTypes, i64 0, i64 %21
  store ptr %0, ptr %22, align 8, !tbaa !10
  %23 = getelementptr inbounds nuw i8, ptr %0, i64 8
  %24 = load ptr, ptr %23, align 8, !tbaa !43
  %.not16 = icmp eq ptr %24, null
  br i1 %.not16, label %26, label %25

25:                                               ; preds = %20
  tail call void %24() #4
  br label %26

26:                                               ; preds = %20, %25, %14, %11
  %.013 = phi i32 [ -1, %11 ], [ -1, %14 ], [ 0, %25 ], [ 0, %20 ]
  ret i32 %.013
}